target datalayout = "e-m:e-p270:32:32-p271:32:32-p272:64:64-i64:64-i128:128-f80:128-n8:16:32:64-S128"
target triple = "x86_64-pc-linux-gnu"

%struct.lean_array_object = type { %struct.lean_object, i64, i64, [0 x ptr] }
%struct.lean_object = type { i32, i32 }
%struct.lean_ctor_object = type { %struct.lean_object, [0 x ptr] }

; Function Attrs: inlinehint nounwind uwtable
define internal ptr @lean_to_array(ptr noundef %0) #0 {
  %2 = alloca ptr, align 8
  store ptr %0, ptr %2, align 8, !tbaa !4
  %3 = load ptr, ptr %2, align 8, !tbaa !4
  ret ptr %3
}

; Function Attrs: inlinehint nounwind uwtable
define internal ptr @lean_to_ctor(ptr noundef %0) #0 {
  %2 = alloca ptr, align 8
  store ptr %0, ptr %2, align 8, !tbaa !4
  %3 = load ptr, ptr %2, align 8, !tbaa !4
  ret ptr %3
}

; Function Attrs: alwaysinline nounwind uwtable
define internal void @lean_dec_ref(ptr noundef %0) #1 {
  %2 = alloca ptr, align 8
  store ptr %0, ptr %2, align 8, !tbaa !4
  %3 = load ptr, ptr %2, align 8, !tbaa !4
  %4 = getelementptr inbounds nuw %struct.lean_object, ptr %3, i32 0, i32 0
  %5 = load i32, ptr %4, align 4, !tbaa !15
  %6 = icmp sgt i32 %5, 1
  %7 = zext i1 %6 to i32
  %8 = sext i32 %7 to i64
  %9 = call i64 @llvm.expect.i64(i64 %8, i64 1)
  %10 = icmp ne i64 %9, 0
  br i1 %10, label %11, label %16

11:                                               ; preds = %1
  %12 = load ptr, ptr %2, align 8, !tbaa !4
  %13 = getelementptr inbounds nuw %struct.lean_object, ptr %12, i32 0, i32 0
  %14 = load i32, ptr %13, align 4, !tbaa !15
  %15 = add i32 %14, -1
  store i32 %15, ptr %13, align 4, !tbaa !15
  br label %24

16:                                               ; preds = %1
  %17 = load ptr, ptr %2, align 8, !tbaa !4
  %18 = getelementptr inbounds nuw %struct.lean_object, ptr %17, i32 0, i32 0
  %19 = load i32, ptr %18, align 4, !tbaa !15
  %20 = icmp ne i32 %19, 0
  br i1 %20, label %21, label %23

21:                                               ; preds = %16
  %22 = load ptr, ptr %2, align 8, !tbaa !4
  call void @lean_dec_ref_cold(ptr noundef %22)
  br label %23

23:                                               ; preds = %21, %16
  br label %24

24:                                               ; preds = %23, %11
  ret void
}

; Function Attrs: alwaysinline nounwind uwtable
define internal zeroext i1 @lean_nat_eq(ptr noundef %0, ptr noundef %1) #1 {
  %3 = alloca i1, align 1
  %4 = alloca ptr, align 8
  %5 = alloca ptr, align 8
  store ptr %0, ptr %4, align 8, !tbaa !4
  store ptr %1, ptr %5, align 8, !tbaa !4
  %6 = load ptr, ptr %4, align 8, !tbaa !4
  %7 = call zeroext i1 @lean_is_scalar(ptr noundef %6)
  br i1 %7, label %8, label %11

8:                                                ; preds = %2
  %9 = load ptr, ptr %5, align 8, !tbaa !4
  %10 = call zeroext i1 @lean_is_scalar(ptr noundef %9)
  br label %11

11:                                               ; preds = %8, %2
  %12 = phi i1 [ false, %2 ], [ %10, %8 ]
  %13 = zext i1 %12 to i32
  %14 = sext i32 %13 to i64
  %15 = call i64 @llvm.expect.i64(i64 %14, i64 1)
  %16 = icmp ne i64 %15, 0
  br i1 %16, label %17, label %21

17:                                               ; preds = %11
  %18 = load ptr, ptr %4, align 8, !tbaa !4
  %19 = load ptr, ptr %5, align 8, !tbaa !4
  %20 = icmp eq ptr %18, %19
  store i1 %20, ptr %3, align 1
  br label %25

21:                                               ; preds = %11
  %22 = load ptr, ptr %4, align 8, !tbaa !4
  %23 = load ptr, ptr %5, align 8, !tbaa !4
  %24 = call zeroext i1 @lean_nat_big_eq(ptr noundef %22, ptr noundef %23)
  store i1 %24, ptr %3, align 1
  br label %25

25:                                               ; preds = %21, %17
  %26 = load i1, ptr %3, align 1
  ret i1 %26
}

; Function Attrs: inlinehint nounwind uwtable
define internal i64 @lean_array_size(ptr noundef %0) #0 {
  %2 = alloca ptr, align 8
  store ptr %0, ptr %2, align 8, !tbaa !4
  %3 = load ptr, ptr %2, align 8, !tbaa !4
  %4 = call ptr @lean_to_array(ptr noundef %3)
  %5 = getelementptr inbounds nuw %struct.lean_array_object, ptr %4, i32 0, i32 1
  %6 = load i64, ptr %5, align 8, !tbaa !8
  ret i64 %6
}

; Function Attrs: inlinehint nounwind uwtable
define internal ptr @lean_ctor_obj_cptr(ptr noundef %0) #0 {
  %2 = alloca ptr, align 8
  store ptr %0, ptr %2, align 8, !tbaa !4
  %3 = load ptr, ptr %2, align 8, !tbaa !4
  %4 = call ptr @lean_to_ctor(ptr noundef %3)
  %5 = getelementptr inbounds nuw %struct.lean_ctor_object, ptr %4, i32 0, i32 1
  %6 = getelementptr inbounds [0 x ptr], ptr %5, i64 0, i64 0
  ret ptr %6
}

; Function Attrs: inlinehint nounwind uwtable
define internal zeroext i8 @lean_ptr_tag(ptr noundef %0) #0 {
  %2 = alloca ptr, align 8
  store ptr %0, ptr %2, align 8, !tbaa !4
  %3 = load ptr, ptr %2, align 8, !tbaa !4
  %4 = getelementptr inbounds nuw %struct.lean_object, ptr %3, i32 0, i32 1
  %5 = load i32, ptr %4, align 4
  %6 = lshr i32 %5, 24
  %7 = trunc i32 %6 to i8
  ret i8 %7
}

; Function Attrs: alwaysinline nounwind uwtable
define internal zeroext i1 @lean_is_scalar(ptr noundef %0) #1 {
  %2 = alloca ptr, align 8
  store ptr %0, ptr %2, align 8, !tbaa !4
  %3 = load ptr, ptr %2, align 8, !tbaa !4
  %4 = ptrtoint ptr %3 to i64
  %5 = and i64 %4, 1
  %6 = icmp eq i64 %5, 1
  ret i1 %6
}

; Function Attrs: inlinehint nounwind uwtable
define internal ptr @lean_box(i64 noundef %0) #0 {
  %2 = alloca i64, align 8
  store i64 %0, ptr %2, align 8, !tbaa !8
  %3 = load i64, ptr %2, align 8, !tbaa !8
  %4 = shl i64 %3, 1
  %5 = or i64 %4, 1
  %6 = inttoptr i64 %5 to ptr
  ret ptr %6
}

; Function Attrs: alwaysinline nounwind uwtable
define internal void @lean_dec(ptr noundef %0) #1 {
  %2 = alloca ptr, align 8
  store ptr %0, ptr %2, align 8, !tbaa !4
  %3 = load ptr, ptr %2, align 8, !tbaa !4
  %4 = call zeroext i1 @lean_is_scalar(ptr noundef %3)
  br i1 %4, label %7, label %5

5:                                                ; preds = %1
  %6 = load ptr, ptr %2, align 8, !tbaa !4
  call void @lean_dec_ref(ptr noundef %6)
  br label %7

7:                                                ; preds = %5, %1
  ret void
}

; Function Attrs: alwaysinline nounwind uwtable
define internal zeroext i8 @lean_nat_dec_eq(ptr noundef %0, ptr noundef %1) #1 {
  %3 = alloca ptr, align 8
  %4 = alloca ptr, align 8
  store ptr %0, ptr %3, align 8, !tbaa !4
  store ptr %1, ptr %4, align 8, !tbaa !4
  %5 = load ptr, ptr %3, align 8, !tbaa !4
  %6 = load ptr, ptr %4, align 8, !tbaa !4
  %7 = call zeroext i1 @lean_nat_eq(ptr noundef %5, ptr noundef %6)
  %8 = zext i1 %7 to i8
  ret i8 %8
}

; Function Attrs: inlinehint nounwind uwtable
define internal ptr @lean_array_get_size(ptr noundef %0) #0 {
  %2 = alloca ptr, align 8
  store ptr %0, ptr %2, align 8, !tbaa !4
  %3 = load ptr, ptr %2, align 8, !tbaa !4
  %4 = call i64 @lean_array_size(ptr noundef %3)
  %5 = call ptr @lean_box(i64 noundef %4)
  ret ptr %5
}

; Function Attrs: inlinehint nounwind uwtable
define internal i64 @lean_unbox(ptr noundef %0) #0 {
  %2 = alloca ptr, align 8
  store ptr %0, ptr %2, align 8, !tbaa !4
  %3 = load ptr, ptr %2, align 8, !tbaa !4
  %4 = ptrtoint ptr %3 to i64
  %5 = lshr i64 %4, 1
  ret i64 %5
}

; Function Attrs: inlinehint nounwind uwtable
define internal ptr @lean_ctor_get(ptr noundef %0, i32 noundef %1) #0 {
  %3 = alloca ptr, align 8
  %4 = alloca i32, align 4
  store ptr %0, ptr %3, align 8, !tbaa !4
  store i32 %1, ptr %4, align 4, !tbaa !13
  %5 = load ptr, ptr %3, align 8, !tbaa !4
  %6 = call ptr @lean_ctor_obj_cptr(ptr noundef %5)
  %7 = load i32, ptr %4, align 4, !tbaa !13
  %8 = zext i32 %7 to i64
  %9 = getelementptr inbounds nuw ptr, ptr %6, i64 %8
  %10 = load ptr, ptr %9, align 8, !tbaa !4
  ret ptr %10
}

; Function Attrs: inlinehint nounwind uwtable
define internal i32 @lean_obj_tag(ptr noundef %0) #0 {
  %2 = alloca i32, align 4
  %3 = alloca ptr, align 8
  store ptr %0, ptr %3, align 8, !tbaa !4
  %4 = load ptr, ptr %3, align 8, !tbaa !4
  %5 = call zeroext i1 @lean_is_scalar(ptr noundef %4)
  br i1 %5, label %6, label %10

6:                                                ; preds = %1
  %7 = load ptr, ptr %3, align 8, !tbaa !4
  %8 = call i64 @lean_unbox(ptr noundef %7)
  %9 = trunc i64 %8 to i32
  store i32 %9, ptr %2, align 4
  br label %14

10:                                               ; preds = %1
  %11 = load ptr, ptr %3, align 8, !tbaa !4
  %12 = call zeroext i8 @lean_ptr_tag(ptr noundef %11)
  %13 = zext i8 %12 to i32
  store i32 %13, ptr %2, align 4
  br label %14

14:                                               ; preds = %10, %6
  %15 = load i32, ptr %2, align 4
  ret i32 %15
}

; Function Attrs: nounwind uwtable
define zeroext i8 @l_Std_DHashMap_Internal_AssocList_contains___at_Lean_Meta_addCustomEliminatorEntry___spec__9(ptr noundef %0, ptr noundef %1) #2 {
  %3 = alloca i8, align 1
  %4 = alloca ptr, align 8
  %5 = alloca ptr, align 8
  %6 = alloca i8, align 1
  %7 = alloca ptr, align 8
  %8 = alloca ptr, align 8
  %9 = alloca ptr, align 8
  %10 = alloca ptr, align 8
  %11 = alloca ptr, align 8
  %12 = alloca ptr, align 8
  %13 = alloca i8, align 1
  %14 = alloca i8, align 1
  %15 = alloca i8, align 1
  %16 = alloca i8, align 1
  %17 = alloca i32, align 4
  %18 = alloca i8, align 1
  %19 = alloca i8, align 1
  %20 = alloca i8, align 1
  %21 = alloca i8, align 1
  %22 = alloca ptr, align 8
  %23 = alloca ptr, align 8
  %24 = alloca i8, align 1
  %25 = alloca i8, align 1
  %26 = alloca i8, align 1
  store ptr %0, ptr %4, align 8, !tbaa !4
  store ptr %1, ptr %5, align 8, !tbaa !4
  br label %27

27:                                               ; preds = %117, %2
  %28 = load ptr, ptr %5, align 8, !tbaa !4
  %29 = call i32 @lean_obj_tag(ptr noundef %28)
  %30 = icmp eq i32 %29, 0
  br i1 %30, label %31, label %33

31:                                               ; preds = %27
  call void @llvm.lifetime.start.p0(i64 1, ptr %6) #8
  store i8 0, ptr %6, align 1, !tbaa !12
  %32 = load i8, ptr %6, align 1, !tbaa !12
  store i8 %32, ptr %3, align 1
  call void @llvm.lifetime.end.p0(i64 1, ptr %6) #8
  br label %119

33:                                               ; preds = %27
  call void @llvm.lifetime.start.p0(i64 8, ptr %7) #8
  call void @llvm.lifetime.start.p0(i64 8, ptr %8) #8
  call void @llvm.lifetime.start.p0(i64 8, ptr %9) #8
  call void @llvm.lifetime.start.p0(i64 8, ptr %10) #8
  call void @llvm.lifetime.start.p0(i64 8, ptr %11) #8
  call void @llvm.lifetime.start.p0(i64 8, ptr %12) #8
  call void @llvm.lifetime.start.p0(i64 1, ptr %13) #8
  call void @llvm.lifetime.start.p0(i64 1, ptr %14) #8
  %34 = load ptr, ptr %5, align 8, !tbaa !4
  %35 = call ptr @lean_ctor_get(ptr noundef %34, i32 noundef 0)
  store ptr %35, ptr %7, align 8, !tbaa !4
  %36 = load ptr, ptr %5, align 8, !tbaa !4
  %37 = call ptr @lean_ctor_get(ptr noundef %36, i32 noundef 2)
  store ptr %37, ptr %8, align 8, !tbaa !4
  %38 = load ptr, ptr %7, align 8, !tbaa !4
  %39 = call ptr @lean_ctor_get(ptr noundef %38, i32 noundef 0)
  store ptr %39, ptr %9, align 8, !tbaa !4
  %40 = load ptr, ptr %7, align 8, !tbaa !4
  %41 = call ptr @lean_ctor_get(ptr noundef %40, i32 noundef 1)
  store ptr %41, ptr %10, align 8, !tbaa !4
  %42 = load ptr, ptr %4, align 8, !tbaa !4
  %43 = call ptr @lean_ctor_get(ptr noundef %42, i32 noundef 0)
  store ptr %43, ptr %11, align 8, !tbaa !4
  %44 = load ptr, ptr %4, align 8, !tbaa !4
  %45 = call ptr @lean_ctor_get(ptr noundef %44, i32 noundef 1)
  store ptr %45, ptr %12, align 8, !tbaa !4
  %46 = load ptr, ptr %9, align 8, !tbaa !4
  %47 = call i64 @lean_unbox(ptr noundef %46)
  %48 = trunc i64 %47 to i8
  store i8 %48, ptr %14, align 1, !tbaa !12
  %49 = load i8, ptr %14, align 1, !tbaa !12
  %50 = zext i8 %49 to i32
  %51 = icmp eq i32 %50, 0
  br i1 %51, label %52, label %65

52:                                               ; preds = %33
  call void @llvm.lifetime.start.p0(i64 1, ptr %15) #8
  %53 = load ptr, ptr %11, align 8, !tbaa !4
  %54 = call i64 @lean_unbox(ptr noundef %53)
  %55 = trunc i64 %54 to i8
  store i8 %55, ptr %15, align 1, !tbaa !12
  %56 = load i8, ptr %15, align 1, !tbaa !12
  %57 = zext i8 %56 to i32
  %58 = icmp eq i32 %57, 0
  br i1 %58, label %59, label %61

59:                                               ; preds = %52
  call void @llvm.lifetime.start.p0(i64 1, ptr %16) #8
  store i8 1, ptr %16, align 1, !tbaa !12
  %60 = load i8, ptr %16, align 1, !tbaa !12
  store i8 %60, ptr %13, align 1, !tbaa !12
  store i32 3, ptr %17, align 4
  call void @llvm.lifetime.end.p0(i64 1, ptr %16) #8
  br label %63

61:                                               ; preds = %52
  call void @llvm.lifetime.start.p0(i64 1, ptr %18) #8
  store i8 0, ptr %18, align 1, !tbaa !12
  %62 = load i8, ptr %18, align 1, !tbaa !12
  store i8 %62, ptr %13, align 1, !tbaa !12
  store i32 3, ptr %17, align 4
  call void @llvm.lifetime.end.p0(i64 1, ptr %18) #8
  br label %63

63:                                               ; preds = %61, %59
  call void @llvm.lifetime.end.p0(i64 1, ptr %15) #8
  %64 = load i32, ptr %17, align 4
  switch i32 %64, label %117 [
    i32 3, label %78
  ]

65:                                               ; preds = %33
  call void @llvm.lifetime.start.p0(i64 1, ptr %19) #8
  %66 = load ptr, ptr %11, align 8, !tbaa !4
  %67 = call i64 @lean_unbox(ptr noundef %66)
  %68 = trunc i64 %67 to i8
  store i8 %68, ptr %19, align 1, !tbaa !12
  %69 = load i8, ptr %19, align 1, !tbaa !12
  %70 = zext i8 %69 to i32
  %71 = icmp eq i32 %70, 0
  br i1 %71, label %72, label %74

72:                                               ; preds = %65
  call void @llvm.lifetime.start.p0(i64 1, ptr %20) #8
  store i8 0, ptr %20, align 1, !tbaa !12
  %73 = load i8, ptr %20, align 1, !tbaa !12
  store i8 %73, ptr %13, align 1, !tbaa !12
  store i32 3, ptr %17, align 4
  call void @llvm.lifetime.end.p0(i64 1, ptr %20) #8
  br label %76

74:                                               ; preds = %65
  call void @llvm.lifetime.start.p0(i64 1, ptr %21) #8
  store i8 1, ptr %21, align 1, !tbaa !12
  %75 = load i8, ptr %21, align 1, !tbaa !12
  store i8 %75, ptr %13, align 1, !tbaa !12
  store i32 3, ptr %17, align 4
  call void @llvm.lifetime.end.p0(i64 1, ptr %21) #8
  br label %76

76:                                               ; preds = %74, %72
  call void @llvm.lifetime.end.p0(i64 1, ptr %19) #8
  %77 = load i32, ptr %17, align 4
  switch i32 %77, label %117 [
    i32 3, label %78
  ]

78:                                               ; preds = %76, %63
  %79 = load i8, ptr %13, align 1, !tbaa !12
  %80 = zext i8 %79 to i32
  %81 = icmp eq i32 %80, 0
  br i1 %81, label %82, label %84

82:                                               ; preds = %78
  %83 = load ptr, ptr %8, align 8, !tbaa !4
  store ptr %83, ptr %5, align 8, !tbaa !4
  store i32 2, ptr %17, align 4
  br label %117

84:                                               ; preds = %78
  call void @llvm.lifetime.start.p0(i64 8, ptr %22) #8
  call void @llvm.lifetime.start.p0(i64 8, ptr %23) #8
  call void @llvm.lifetime.start.p0(i64 1, ptr %24) #8
  %85 = load ptr, ptr %10, align 8, !tbaa !4
  %86 = call ptr @lean_array_get_size(ptr noundef %85)
  store ptr %86, ptr %22, align 8, !tbaa !4
  %87 = load ptr, ptr %12, align 8, !tbaa !4
  %88 = call ptr @lean_array_get_size(ptr noundef %87)
  store ptr %88, ptr %23, align 8, !tbaa !4
  %89 = load ptr, ptr %22, align 8, !tbaa !4
  %90 = load ptr, ptr %23, align 8, !tbaa !4
  %91 = call zeroext i8 @lean_nat_dec_eq(ptr noundef %89, ptr noundef %90)
  store i8 %91, ptr %24, align 1, !tbaa !12
  %92 = load ptr, ptr %23, align 8, !tbaa !4
  call void @lean_dec(ptr noundef %92)
  %93 = load i8, ptr %24, align 1, !tbaa !12
  %94 = zext i8 %93 to i32
  %95 = icmp eq i32 %94, 0
  br i1 %95, label %96, label %99

96:                                               ; preds = %84
  %97 = load ptr, ptr %22, align 8, !tbaa !4
  call void @lean_dec(ptr noundef %97)
  %98 = load ptr, ptr %8, align 8, !tbaa !4
  store ptr %98, ptr %5, align 8, !tbaa !4
  store i32 2, ptr %17, align 4
  br label %116

99:                                               ; preds = %84
  call void @llvm.lifetime.start.p0(i64 1, ptr %25) #8
  %100 = load ptr, ptr %10, align 8, !tbaa !4
  %101 = load ptr, ptr %12, align 8, !tbaa !4
  %102 = call ptr @lean_box(i64 noundef 0)
  %103 = load ptr, ptr %10, align 8, !tbaa !4
  %104 = load ptr, ptr %12, align 8, !tbaa !4
  %105 = load ptr, ptr %22, align 8, !tbaa !4
  %106 = call ptr @lean_box(i64 noundef 0)
  %107 = call zeroext i8 @l_Array_isEqvAux___at_Lean_Meta_addCustomEliminatorEntry___spec__10(ptr noundef %100, ptr noundef %101, ptr noundef %102, ptr noundef %103, ptr noundef %104, ptr noundef %105, ptr noundef %106)
  store i8 %107, ptr %25, align 1, !tbaa !12
  %108 = load i8, ptr %25, align 1, !tbaa !12
  %109 = zext i8 %108 to i32
  %110 = icmp eq i32 %109, 0
  br i1 %110, label %111, label %113

111:                                              ; preds = %99
  %112 = load ptr, ptr %8, align 8, !tbaa !4
  store ptr %112, ptr %5, align 8, !tbaa !4
  store i32 2, ptr %17, align 4
  br label %115

113:                                              ; preds = %99
  call void @llvm.lifetime.start.p0(i64 1, ptr %26) #8
  store i8 1, ptr %26, align 1, !tbaa !12
  %114 = load i8, ptr %26, align 1, !tbaa !12
  store i8 %114, ptr %3, align 1
  store i32 1, ptr %17, align 4
  call void @llvm.lifetime.end.p0(i64 1, ptr %26) #8
  br label %115

115:                                              ; preds = %113, %111
  call void @llvm.lifetime.end.p0(i64 1, ptr %25) #8
  br label %116

116:                                              ; preds = %115, %96
  call void @llvm.lifetime.end.p0(i64 1, ptr %24) #8
  call void @llvm.lifetime.end.p0(i64 8, ptr %23) #8
  call void @llvm.lifetime.end.p0(i64 8, ptr %22) #8
  br label %117

117:                                              ; preds = %116, %82, %76, %63
  call void @llvm.lifetime.end.p0(i64 1, ptr %14) #8
  call void @llvm.lifetime.end.p0(i64 1, ptr %13) #8
  call void @llvm.lifetime.end.p0(i64 8, ptr %12) #8
  call void @llvm.lifetime.end.p0(i64 8, ptr %11) #8
  call void @llvm.lifetime.end.p0(i64 8, ptr %10) #8
  call void @llvm.lifetime.end.p0(i64 8, ptr %9) #8
  call void @llvm.lifetime.end.p0(i64 8, ptr %8) #8
  call void @llvm.lifetime.end.p0(i64 8, ptr %7) #8
  %118 = load i32, ptr %17, align 4
  switch i32 %118, label %121 [
    i32 2, label %27
    i32 1, label %119
  ]

119:                                              ; preds = %117, %31
  %120 = load i8, ptr %3, align 1
  ret i8 %120

121:                                              ; preds = %117
  unreachable
}