; Function Attrs: nounwind uwtable
define zeroext range(i8 0, 2) i8 @l_Std_DHashMap_Internal_AssocList_contains___at_Lean_Meta_addCustomEliminatorEntry___spec__9(ptr noundef readonly captures(none) %0, ptr noundef %1) local_unnamed_addr #1 {
  %3 = getelementptr inbounds nuw i8, ptr %0, i64 8
  %4 = getelementptr inbounds nuw i8, ptr %0, i64 16
  br label %.backedge

.backedge:                                        ; preds = %.backedge.backedge, %2
  %.040 = phi ptr [ %1, %2 ], [ %18, %.backedge.backedge ]
  %5 = ptrtoint ptr %.040 to i64
  %6 = and i64 %5, 1
  %.not.i58 = icmp eq i64 %6, 0
  br i1 %.not.i58, label %10, label %7

7:                                                ; preds = %.backedge
  %8 = lshr i64 %5, 1
  %9 = trunc i64 %8 to i32
  br label %lean_obj_tag.exit

10:                                               ; preds = %.backedge
  %11 = getelementptr i8, ptr %.040, i64 4
  %.val.i = load i32, ptr %11, align 4
  %12 = lshr i32 %.val.i, 24
  br label %lean_obj_tag.exit

lean_obj_tag.exit:                                ; preds = %7, %10
  %.0.i59 = phi i32 [ %9, %7 ], [ %12, %10 ]
  %13 = icmp eq i32 %.0.i59, 0
  br i1 %13, label %39, label %14

14:                                               ; preds = %lean_obj_tag.exit
  %15 = getelementptr inbounds nuw i8, ptr %.040, i64 8
  %16 = load ptr, ptr %15, align 8, !tbaa !9
  %17 = getelementptr inbounds nuw i8, ptr %.040, i64 24
  %18 = load ptr, ptr %17, align 8, !tbaa !9
  %19 = getelementptr inbounds nuw i8, ptr %16, i64 8
  %20 = load ptr, ptr %19, align 8, !tbaa !9
  %21 = getelementptr inbounds nuw i8, ptr %16, i64 16
  %22 = load ptr, ptr %21, align 8, !tbaa !9
  %23 = load ptr, ptr %3, align 8, !tbaa !9
  %24 = load ptr, ptr %4, align 8, !tbaa !9
  %25 = ptrtoint ptr %20 to i64
  %26 = and i64 %25, 510
  %27 = icmp eq i64 %26, 0
  %28 = ptrtoint ptr %23 to i64
  %29 = and i64 %28, 510
  %30 = icmp ne i64 %29, 0
  %.145.in = xor i1 %27, %30
  br i1 %.145.in, label %lean_dec.exit54, label %.backedge.backedge

.backedge.backedge:                               ; preds = %14, %lean_dec.exit54, %35
  br label %.backedge

lean_dec.exit54:                                  ; preds = %14
  %31 = getelementptr i8, ptr %22, i64 8
  %.val57 = load i64, ptr %31, align 8, !tbaa !12
  %32 = shl i64 %.val57, 1
  %33 = getelementptr i8, ptr %24, i64 8
  %.val = load i64, ptr %33, align 8, !tbaa !12
  %34 = shl i64 %.val, 1
  %.not = icmp eq i64 %32, %34
  br i1 %.not, label %35, label %.backedge.backedge

35:                                               ; preds = %lean_dec.exit54
  %36 = or disjoint i64 %32, 1
  %37 = inttoptr i64 %36 to ptr
  %38 = tail call zeroext i8 @l_Array_isEqvAux___at_Lean_Meta_addCustomEliminatorEntry___spec__10(ptr nonnull poison, ptr nonnull poison, ptr nonnull poison, ptr noundef nonnull %22, ptr noundef nonnull %24, ptr noundef nonnull %37, ptr nonnull poison)
  %.not60 = icmp eq i8 %38, 0
  br i1 %.not60, label %.backedge.backedge, label %39

39:                                               ; preds = %35, %lean_obj_tag.exit
  %.1 = phi i8 [ 0, %lean_obj_tag.exit ], [ 1, %35 ]
  ret i8 %.1
}